; Function Attrs: nounwind uwtable
define range(i32 -2, 1) i32 @DES_key_sched(ptr noundef %0, ptr noundef writeonly captures(none) %1) local_unnamed_addr #2 {
  br label %3

3:                                                ; preds = %3, %2
  %indvars.iv.i.i = phi i64 [ 0, %2 ], [ %indvars.iv.next.i.i, %3 ]
  %.01214.i.i = phi i8 [ -1, %2 ], [ %14, %3 ]
  %4 = getelementptr inbounds nuw [8 x i8], ptr %0, i64 0, i64 %indvars.iv.i.i
  %5 = load i8, ptr %4, align 1, !tbaa !3
  %6 = lshr i8 %5, 4
  %7 = xor i8 %6, %5
  %8 = lshr i8 %7, 2
  %9 = xor i8 %8, %7
  %10 = lshr i8 %9, 1
  %11 = xor i8 %10, %9
  %12 = and i8 %11, 1
  %13 = icmp eq i8 %12, 0
  %14 = select i1 %13, i8 0, i8 %.01214.i.i
  %indvars.iv.next.i.i = add nuw nsw i64 %indvars.iv.i.i, 1
  %exitcond.not.i.i = icmp eq i64 %indvars.iv.next.i.i, 8
  br i1 %exitcond.not.i.i, label %DES_check_key_parity.exit.i, label %3, !llvm.loop !8

DES_check_key_parity.exit.i:                      ; preds = %3, %DES_check_key_parity.exit.i
  %indvars.iv.i5.i = phi i64 [ %indvars.iv.next.i6.i, %DES_check_key_parity.exit.i ], [ 0, %3 ]
  %.068.i.i = phi i32 [ %18, %DES_check_key_parity.exit.i ], [ 0, %3 ]
  %15 = getelementptr inbounds nuw [16 x [8 x i8]], ptr @weak_keys, i64 0, i64 %indvars.iv.i5.i
  %16 = tail call i32 @CRYPTO_memcmp(ptr noundef nonnull %15, ptr noundef %0, i64 noundef 8) #5
  %17 = icmp eq i32 %16, 0
  %18 = select i1 %17, i32 -1, i32 %.068.i.i
  %indvars.iv.next.i6.i = add nuw nsw i64 %indvars.iv.i5.i, 1
  %exitcond.not.i7.i = icmp eq i64 %indvars.iv.next.i6.i, 16
  br i1 %exitcond.not.i7.i, label %DES_set_key.exit, label %DES_check_key_parity.exit.i, !llvm.loop !9

DES_set_key.exit:                                 ; preds = %DES_check_key_parity.exit.i
  %19 = and i8 %14, 1
  %sext.i = add nsw i8 %19, -1
  %spec.select.i = sext i8 %sext.i to i32
  %20 = and i32 %18, 1
  %.not4.i = icmp eq i32 %20, 0
  %.1.i = select i1 %.not4.i, i32 %spec.select.i, i32 -2
  tail call void @DES_set_key_unchecked(ptr noundef %0, ptr noundef %1)
  ret i32 %.1.i
}